target datalayout = "e-m:e-p270:32:32-p271:32:32-p272:64:64-i64:64-i128:128-f80:128-n8:16:32:64-S128"
target triple = "x86_64-pc-linux-gnu"

%struct.H5VL_loc_params_t = type { i32, i32, %union.anon }
%union.anon = type { %struct.H5VL_loc_by_idx }
%struct.H5VL_loc_by_idx = type { ptr, i32, i32, i64, i64 }
%struct.H5VL_loc_by_name = type { ptr, i64 }

@H5_libinit_g = external global i8, align 1
@H5_libterm_g = external global i8, align 1
@.str = private unnamed_addr constant [103 x i8] c"generated/home/dtcxzyw/WorkSpace/Projects/compilers/llvm-opt-benchmark/bench/hdf5/hdf5/src/H5Gdeprec.c\00", align 1
@H5E_FUNC_g = external global i64, align 8
@H5E_CANTINIT_g = external global i64, align 8
@.str.1 = private unnamed_addr constant [30 x i8] c"library initialization failed\00", align 1
@H5E_CANTSET_g = external global i64, align 8
@.str.2 = private unnamed_addr constant [22 x i8] c"can't set API context\00", align 1
@H5E_ARGS_g = external global i64, align 8
@H5E_BADTYPE_g = external global i64, align 8
@H5E_SYM_g = external global i64, align 8
@.str.10 = private unnamed_addr constant [40 x i8] c"can't set collective metadata read info\00", align 1
@.str.11 = private unnamed_addr constant [28 x i8] c"invalid location identifier\00", align 1
@H5P_LST_LINK_CREATE_ID_g = external global i64, align 8
@H5P_LST_DATASET_XFER_ID_g = external global i64, align 8
@H5P_LST_LINK_ACCESS_ID_g = external global i64, align 8
@__func__.H5Gmove = private unnamed_addr constant [8 x i8] c"H5Gmove\00", align 1
@H5E_CANTMOVE_g = external global i64, align 8
@.str.23 = private unnamed_addr constant [19 x i8] c"couldn't move link\00", align 1

; Function Attrs: nounwind uwtable
define i32 @H5Gmove(i64 noundef %0, ptr noundef %1, ptr noundef %2) #0 {
  %4 = alloca i64, align 8
  %5 = alloca ptr, align 8
  %6 = alloca ptr, align 8
  %7 = alloca ptr, align 8
  %8 = alloca %struct.H5VL_loc_params_t, align 8
  %9 = alloca %struct.H5VL_loc_params_t, align 8
  %10 = alloca i32, align 4
  %11 = alloca i8, align 1
  %12 = alloca i8, align 1
  store i64 %0, ptr %4, align 8
  store ptr %1, ptr %5, align 8
  store ptr %2, ptr %6, align 8
  store i32 0, ptr %10, align 4
  store i8 0, ptr %11, align 1
  store i8 0, ptr %12, align 1
  %13 = load i8, ptr @H5_libinit_g, align 1
  %14 = trunc i8 %13 to i1
  br i1 %14, label %19, label %15

15:                                               ; preds = %3
  %16 = load i8, ptr @H5_libterm_g, align 1
  %17 = trunc i8 %16 to i1
  %18 = xor i1 %17, true
  br label %19

19:                                               ; preds = %15, %3
  %20 = phi i1 [ false, %3 ], [ %18, %15 ]
  %21 = xor i1 %20, true
  %22 = xor i1 %21, true
  %23 = zext i1 %22 to i32
  %24 = sext i32 %23 to i64
  %25 = icmp ne i64 %24, 0
  br i1 %25, label %26, label %50

26:                                               ; preds = %19
  %27 = call i32 @H5_init_library()
  %28 = icmp slt i32 %27, 0
  %29 = xor i1 %28, true
  %30 = xor i1 %29, true
  %31 = zext i1 %30 to i32
  %32 = sext i32 %31 to i64
  %33 = icmp ne i64 %32, 0
  br i1 %33, label %34, label %49

34:                                               ; preds = %26
  br label %35

35:                                               ; preds = %34
  br label %36

36:                                               ; preds = %35
  br label %37

37:                                               ; preds = %36
  %38 = load i64, ptr @H5E_FUNC_g, align 8
  %39 = load i64, ptr @H5E_CANTINIT_g, align 8
  %40 = call i32 (ptr, ptr, i32, i64, i64, ptr, ...) @H5E_printf_stack(ptr noundef @.str, ptr noundef @__func__.H5Gmove, i32 noundef 480, i64 noundef %38, i64 noundef %39, ptr noundef @.str.1)
  br label %41

41:                                               ; preds = %37
  store i8 1, ptr %12, align 1
  %42 = load i8, ptr %12, align 1
  %43 = trunc i8 %42 to i1
  %44 = zext i1 %43 to i8
  store i8 %44, ptr %12, align 1
  br label %45

45:                                               ; preds = %41
  br label %46

46:                                               ; preds = %45
  store i32 -1, ptr %10, align 4
  br label %153

47:                                               ; No predecessors!
  br label %48

48:                                               ; preds = %47
  br label %49

49:                                               ; preds = %48, %26
  br label %50

50:                                               ; preds = %49, %19
  %51 = call i32 @H5CX_push()
  %52 = icmp slt i32 %51, 0
  %53 = xor i1 %52, true
  %54 = xor i1 %53, true
  %55 = zext i1 %54 to i32
  %56 = sext i32 %55 to i64
  %57 = icmp ne i64 %56, 0
  br i1 %57, label %58, label %73

58:                                               ; preds = %50
  br label %59

59:                                               ; preds = %58
  br label %60

60:                                               ; preds = %59
  br label %61

61:                                               ; preds = %60
  %62 = load i64, ptr @H5E_FUNC_g, align 8
  %63 = load i64, ptr @H5E_CANTSET_g, align 8
  %64 = call i32 (ptr, ptr, i32, i64, i64, ptr, ...) @H5E_printf_stack(ptr noundef @.str, ptr noundef @__func__.H5Gmove, i32 noundef 480, i64 noundef %62, i64 noundef %63, ptr noundef @.str.2)
  br label %65

65:                                               ; preds = %61
  store i8 1, ptr %12, align 1
  %66 = load i8, ptr %12, align 1
  %67 = trunc i8 %66 to i1
  %68 = zext i1 %67 to i8
  store i8 %68, ptr %12, align 1
  br label %69

69:                                               ; preds = %65
  br label %70

70:                                               ; preds = %69
  store i32 -1, ptr %10, align 4
  br label %153

71:                                               ; No predecessors!
  br label %72

72:                                               ; preds = %71
  br label %74

73:                                               ; preds = %50
  store i8 1, ptr %11, align 1
  br label %74

74:                                               ; preds = %73, %72
  %75 = call i32 @H5E_clear_stack()
  %76 = load i64, ptr %4, align 8
  %77 = call i32 @H5CX_set_loc(i64 noundef %76)
  %78 = icmp slt i32 %77, 0
  br i1 %78, label %79, label %94

79:                                               ; preds = %74
  br label %80

80:                                               ; preds = %79
  br label %81

81:                                               ; preds = %80
  br label %82

82:                                               ; preds = %81
  %83 = load i64, ptr @H5E_SYM_g, align 8
  %84 = load i64, ptr @H5E_CANTSET_g, align 8
  %85 = call i32 (ptr, ptr, i32, i64, i64, ptr, ...) @H5E_printf_stack(ptr noundef @.str, ptr noundef @__func__.H5Gmove, i32 noundef 484, i64 noundef %83, i64 noundef %84, ptr noundef @.str.10)
  br label %86

86:                                               ; preds = %82
  store i8 1, ptr %12, align 1
  %87 = load i8, ptr %12, align 1
  %88 = trunc i8 %87 to i1
  %89 = zext i1 %88 to i8
  store i8 %89, ptr %12, align 1
  br label %90

90:                                               ; preds = %86
  br label %91

91:                                               ; preds = %90
  store i32 -1, ptr %10, align 4
  br label %153

92:                                               ; No predecessors!
  br label %93

93:                                               ; preds = %92
  br label %94

94:                                               ; preds = %93, %74
  %95 = getelementptr inbounds %struct.H5VL_loc_params_t, ptr %8, i32 0, i32 1
  store i32 1, ptr %95, align 4
  %96 = load i64, ptr %4, align 8
  %97 = call i32 @H5I_get_type(i64 noundef %96)
  %98 = getelementptr inbounds %struct.H5VL_loc_params_t, ptr %8, i32 0, i32 0
  store i32 %97, ptr %98, align 8
  %99 = load ptr, ptr %5, align 8
  %100 = getelementptr inbounds %struct.H5VL_loc_params_t, ptr %8, i32 0, i32 2
  %101 = getelementptr inbounds %struct.H5VL_loc_by_name, ptr %100, i32 0, i32 0
  store ptr %99, ptr %101, align 8
  %102 = load i64, ptr @H5P_LST_LINK_ACCESS_ID_g, align 8
  %103 = getelementptr inbounds %struct.H5VL_loc_params_t, ptr %8, i32 0, i32 2
  %104 = getelementptr inbounds %struct.H5VL_loc_by_name, ptr %103, i32 0, i32 1
  store i64 %102, ptr %104, align 8
  %105 = getelementptr inbounds %struct.H5VL_loc_params_t, ptr %9, i32 0, i32 1
  store i32 1, ptr %105, align 4
  %106 = load ptr, ptr %6, align 8
  %107 = getelementptr inbounds %struct.H5VL_loc_params_t, ptr %9, i32 0, i32 2
  %108 = getelementptr inbounds %struct.H5VL_loc_by_name, ptr %107, i32 0, i32 0
  store ptr %106, ptr %108, align 8
  %109 = load i64, ptr @H5P_LST_LINK_ACCESS_ID_g, align 8
  %110 = getelementptr inbounds %struct.H5VL_loc_params_t, ptr %9, i32 0, i32 2
  %111 = getelementptr inbounds %struct.H5VL_loc_by_name, ptr %110, i32 0, i32 1
  store i64 %109, ptr %111, align 8
  %112 = load i64, ptr %4, align 8
  %113 = call ptr @H5I_object(i64 noundef %112)
  store ptr %113, ptr %7, align 8
  %114 = icmp eq ptr null, %113
  br i1 %114, label %115, label %130

115:                                              ; preds = %94
  br label %116

116:                                              ; preds = %115
  br label %117

117:                                              ; preds = %116
  br label %118

118:                                              ; preds = %117
  %119 = load i64, ptr @H5E_ARGS_g, align 8
  %120 = load i64, ptr @H5E_BADTYPE_g, align 8
  %121 = call i32 (ptr, ptr, i32, i64, i64, ptr, ...) @H5E_printf_stack(ptr noundef @.str, ptr noundef @__func__.H5Gmove, i32 noundef 497, i64 noundef %119, i64 noundef %120, ptr noundef @.str.11)
  br label %122

122:                                              ; preds = %118
  store i8 1, ptr %12, align 1
  %123 = load i8, ptr %12, align 1
  %124 = trunc i8 %123 to i1
  %125 = zext i1 %124 to i8
  store i8 %125, ptr %12, align 1
  br label %126

126:                                              ; preds = %122
  br label %127

127:                                              ; preds = %126
  store i32 -1, ptr %10, align 4
  br label %153

128:                                              ; No predecessors!
  br label %129

129:                                              ; preds = %128
  br label %130

130:                                              ; preds = %129, %94
  %131 = load ptr, ptr %7, align 8
  %132 = load i64, ptr @H5P_LST_LINK_CREATE_ID_g, align 8
  %133 = load i64, ptr @H5P_LST_LINK_ACCESS_ID_g, align 8
  %134 = load i64, ptr @H5P_LST_DATASET_XFER_ID_g, align 8
  %135 = call i32 @H5VL_link_move(ptr noundef %131, ptr noundef %8, ptr noundef null, ptr noundef %9, i64 noundef %132, i64 noundef %133, i64 noundef %134, ptr noundef null)
  %136 = icmp slt i32 %135, 0
  br i1 %136, label %137, label %152

137:                                              ; preds = %130
  br label %138

138:                                              ; preds = %137
  br label %139

139:                                              ; preds = %138
  br label %140

140:                                              ; preds = %139
  %141 = load i64, ptr @H5E_SYM_g, align 8
  %142 = load i64, ptr @H5E_CANTMOVE_g, align 8
  %143 = call i32 (ptr, ptr, i32, i64, i64, ptr, ...) @H5E_printf_stack(ptr noundef @.str, ptr noundef @__func__.H5Gmove, i32 noundef 502, i64 noundef %141, i64 noundef %142, ptr noundef @.str.23)
  br label %144

144:                                              ; preds = %140
  store i8 1, ptr %12, align 1
  %145 = load i8, ptr %12, align 1
  %146 = trunc i8 %145 to i1
  %147 = zext i1 %146 to i8
  store i8 %147, ptr %12, align 1
  br label %148

148:                                              ; preds = %144
  br label %149

149:                                              ; preds = %148
  store i32 -1, ptr %10, align 4
  br label %153

150:                                              ; No predecessors!
  br label %151

151:                                              ; preds = %150
  br label %152

152:                                              ; preds = %151, %130
  br label %153

153:                                              ; preds = %152, %149, %127, %91, %70, %46
  %154 = load i8, ptr %11, align 1
  %155 = trunc i8 %154 to i1
  %156 = xor i1 %155, true
  %157 = xor i1 %156, true
  %158 = zext i1 %157 to i32
  %159 = sext i32 %158 to i64
  %160 = icmp ne i64 %159, 0
  br i1 %160, label %161, label %163

161:                                              ; preds = %153
  %162 = call i32 @H5CX_pop(i1 noundef zeroext true)
  store i8 0, ptr %11, align 1
  br label %163

163:                                              ; preds = %161, %153
  %164 = load i8, ptr %12, align 1
  %165 = trunc i8 %164 to i1
  %166 = xor i1 %165, true
  %167 = xor i1 %166, true
  %168 = zext i1 %167 to i32
  %169 = sext i32 %168 to i64
  %170 = icmp ne i64 %169, 0
  br i1 %170, label %171, label %173

171:                                              ; preds = %163
  %172 = call i32 @H5E_dump_api_stack()
  br label %173

173:                                              ; preds = %171, %163
  %174 = load i32, ptr %10, align 4
  ret i32 %174
}