; Function Attrs: nounwind uwtable
define range(i32 -1, 1) i32 @H5Gmove(i64 noundef %0, ptr noundef %1, ptr noundef %2) local_unnamed_addr #1 {
  %4 = alloca %struct.H5VL_loc_params_t, align 8
  %5 = alloca %struct.H5VL_loc_params_t, align 8
  %6 = load i8, ptr @H5_libinit_g, align 1
  %7 = trunc i8 %6 to i1
  %8 = load i8, ptr @H5_libterm_g, align 1
  %9 = trunc i8 %8 to i1
  %10 = select i1 %7, i1 true, i1 %9
  br i1 %10, label %18, label %11

11:                                               ; preds = %3
  %12 = tail call i32 @H5_init_library() #4
  %13 = icmp slt i32 %12, 0
  br i1 %13, label %14, label %18

14:                                               ; preds = %11
  %15 = load i64, ptr @H5E_FUNC_g, align 8
  %16 = load i64, ptr @H5E_CANTINIT_g, align 8
  %17 = tail call i32 (ptr, ptr, i32, i64, i64, ptr, ...) @H5E_printf_stack(ptr noundef nonnull @.str, ptr noundef nonnull @__func__.H5Gmove, i32 noundef 480, i64 noundef %15, i64 noundef %16, ptr noundef nonnull @.str.1) #4
  br label %.thread24

18:                                               ; preds = %11, %3
  %19 = tail call i32 @H5CX_push() #4
  %20 = icmp slt i32 %19, 0
  br i1 %20, label %21, label %25

21:                                               ; preds = %18
  %22 = load i64, ptr @H5E_FUNC_g, align 8
  %23 = load i64, ptr @H5E_CANTSET_g, align 8
  %24 = tail call i32 (ptr, ptr, i32, i64, i64, ptr, ...) @H5E_printf_stack(ptr noundef nonnull @.str, ptr noundef nonnull @__func__.H5Gmove, i32 noundef 480, i64 noundef %22, i64 noundef %23, ptr noundef nonnull @.str.2) #4
  br label %.thread24

25:                                               ; preds = %18
  %26 = tail call i32 @H5E_clear_stack() #4
  %27 = tail call i32 @H5CX_set_loc(i64 noundef %0) #4
  %28 = icmp slt i32 %27, 0
  br i1 %28, label %29, label %33

29:                                               ; preds = %25
  %30 = load i64, ptr @H5E_SYM_g, align 8
  %31 = load i64, ptr @H5E_CANTSET_g, align 8
  %32 = tail call i32 (ptr, ptr, i32, i64, i64, ptr, ...) @H5E_printf_stack(ptr noundef nonnull @.str, ptr noundef nonnull @__func__.H5Gmove, i32 noundef 484, i64 noundef %30, i64 noundef %31, ptr noundef nonnull @.str.10) #4
  br label %.thread30

33:                                               ; preds = %25
  %34 = getelementptr inbounds i8, ptr %4, i64 4
  store i32 1, ptr %34, align 4
  %35 = tail call i32 @H5I_get_type(i64 noundef %0) #4
  store i32 %35, ptr %4, align 8
  %36 = getelementptr inbounds i8, ptr %4, i64 8
  store ptr %1, ptr %36, align 8
  %37 = load i64, ptr @H5P_LST_LINK_ACCESS_ID_g, align 8
  %38 = getelementptr inbounds i8, ptr %4, i64 16
  store i64 %37, ptr %38, align 8
  %39 = getelementptr inbounds i8, ptr %5, i64 4
  store i32 1, ptr %39, align 4
  %40 = getelementptr inbounds i8, ptr %5, i64 8
  store ptr %2, ptr %40, align 8
  %41 = getelementptr inbounds i8, ptr %5, i64 16
  store i64 %37, ptr %41, align 8
  %42 = tail call ptr @H5I_object(i64 noundef %0) #4
  %43 = icmp eq ptr %42, null
  br i1 %43, label %44, label %48

44:                                               ; preds = %33
  %45 = load i64, ptr @H5E_ARGS_g, align 8
  %46 = load i64, ptr @H5E_BADTYPE_g, align 8
  %47 = tail call i32 (ptr, ptr, i32, i64, i64, ptr, ...) @H5E_printf_stack(ptr noundef nonnull @.str, ptr noundef nonnull @__func__.H5Gmove, i32 noundef 497, i64 noundef %45, i64 noundef %46, ptr noundef nonnull @.str.11) #4
  br label %.thread30

48:                                               ; preds = %33
  %49 = load i64, ptr @H5P_LST_LINK_CREATE_ID_g, align 8
  %50 = load i64, ptr @H5P_LST_LINK_ACCESS_ID_g, align 8
  %51 = load i64, ptr @H5P_LST_DATASET_XFER_ID_g, align 8
  %52 = call i32 @H5VL_link_move(ptr noundef nonnull %42, ptr noundef nonnull %4, ptr noundef null, ptr noundef nonnull %5, i64 noundef %49, i64 noundef %50, i64 noundef %51, ptr noundef null) #4
  %53 = icmp slt i32 %52, 0
  br i1 %53, label %54, label %59

54:                                               ; preds = %48
  %55 = load i64, ptr @H5E_SYM_g, align 8
  %56 = load i64, ptr @H5E_CANTMOVE_g, align 8
  %57 = call i32 (ptr, ptr, i32, i64, i64, ptr, ...) @H5E_printf_stack(ptr noundef nonnull @.str, ptr noundef nonnull @__func__.H5Gmove, i32 noundef 502, i64 noundef %55, i64 noundef %56, ptr noundef nonnull @.str.23) #4
  br label %.thread30

.thread30:                                        ; preds = %54, %44, %29
  %58 = call i32 @H5CX_pop(i1 noundef zeroext true) #4
  br label %.thread24

59:                                               ; preds = %48
  %60 = call i32 @H5CX_pop(i1 noundef zeroext true) #4
  br label %62

.thread24:                                        ; preds = %21, %14, %.thread30
  %61 = call i32 @H5E_dump_api_stack() #4
  br label %62

62:                                               ; preds = %59, %.thread24
  %.0141927 = phi i32 [ -1, %.thread24 ], [ 0, %59 ]
  ret i32 %.0141927
}